target datalayout = "e-m:e-p270:32:32-p271:32:32-p272:64:64-i64:64-i128:128-f80:128-n8:16:32:64-S128"
target triple = "x86_64-pc-linux-gnu"

%struct._value_string_ext = type { ptr, i32, i32, ptr, ptr }
%struct._packet_info = type { ptr, ptr, i32, i32, %struct.nstime_t, %struct.nstime_t, %struct.nstime_t, i8, ptr, ptr, ptr, ptr, %struct._address, %struct._address, %struct._address, %struct._address, %struct._address, %struct._address, i32, ptr, i8, [3 x i8], %struct.anon, i32, i32, i32, i32, ptr, i8, ptr, ptr, i16, i16, i32, i32, i16, i32, i32, ptr, ptr, ptr, i8, i8, i16, i16, i16, i32, i16, i16, ptr, ptr, ptr, ptr, ptr, i32, i32 }
%struct.nstime_t = type { i64, i32 }
%struct._address = type { i32, i32, ptr, ptr }
%struct.anon = type { i8, [3 x i8] }
%struct._proto_node = type { ptr, ptr, ptr, ptr, ptr, ptr, ptr }
%struct.field_info = type { ptr, i32, i32, i32, i32, i32, i32, ptr, ptr, ptr, i32, i32 }

@ett_nfs3_post_op_attr = internal global i32 0, align 4
@hf_nfs3_attributes_follow = internal global i32 0, align 4
@.str = private unnamed_addr constant [11 x i8] c"attributes\00", align 1
@hf_nfs3_status = internal global i32 0, align 4
@names_nfs3_status_ext = internal global %struct._value_string_ext { ptr @_try_val_to_str_ext_init, i32 0, i32 29, ptr @names_nfs_nfsstat3, ptr @.str.1577 }, align 8
@hf_nfs3_fsinfo_rtmax = internal global i32 0, align 4
@hf_nfs3_fsinfo_rtpref = internal global i32 0, align 4
@hf_nfs3_fsinfo_rtmult = internal global i32 0, align 4
@hf_nfs3_fsinfo_wtmax = internal global i32 0, align 4
@hf_nfs3_fsinfo_wtpref = internal global i32 0, align 4
@hf_nfs3_fsinfo_wtmult = internal global i32 0, align 4
@hf_nfs3_fsinfo_dtpref = internal global i32 0, align 4
@hf_nfs3_fsinfo_maxfilesize = internal global i32 0, align 4
@hf_nfs3_fsinfo_properties = internal global i32 0, align 4
@hf_nfs_dtime = internal global i32 0, align 4
@hf_nfs_dtime_sec = internal global i32 0, align 4
@hf_nfs_dtime_nsec = internal global i32 0, align 4
@hf_nfs_status = hidden global i32 0, align 4
@ett_nfs3_fsinfo_properties = internal global i32 0, align 4
@.str.2241 = private unnamed_addr constant [18 x i8] c"Unknown error: %u\00", align 1
@.str.2242 = private unnamed_addr constant [11 x i8] c" Error: %s\00", align 1
@.str.2294 = private unnamed_addr constant [15 x i8] c"obj_attributes\00", align 1
@dissect_nfs3_fsinfo_reply.properties = internal constant [5 x ptr] [ptr @hf_nfs3_fsinfo_properties_setattr, ptr @hf_nfs3_fsinfo_properties_pathconf, ptr @hf_nfs3_fsinfo_properties_symlinks, ptr @hf_nfs3_fsinfo_properties_hardlinks, ptr null], align 16
@.str.2358 = private unnamed_addr constant [15 x i8] c", FSINFO Reply\00", align 1
@.str.2359 = private unnamed_addr constant [26 x i8] c", FSINFO Reply  Error: %s\00", align 1

; Function Attrs: inlinehint nounwind null_pointer_is_valid sspstrong uwtable
define internal void @proto_item_set_hidden(ptr noundef %0) #8 {
  %2 = alloca ptr, align 8
  store ptr %0, ptr %2, align 8
  %3 = load ptr, ptr %2, align 8
  %4 = icmp ne ptr %3, null
  br i1 %4, label %5, label %24

5:                                                ; preds = %1
  br label %6

6:                                                ; preds = %5
  %7 = load ptr, ptr %2, align 8
  %8 = getelementptr inbounds nuw %struct._proto_node, ptr %7, i32 0, i32 5
  %9 = load ptr, ptr %8, align 8
  %10 = icmp ne ptr %9, null
  br i1 %10, label %11, label %22

11:                                               ; preds = %6
  %12 = load ptr, ptr %2, align 8
  %13 = getelementptr inbounds nuw %struct._proto_node, ptr %12, i32 0, i32 5
  %14 = load ptr, ptr %13, align 8
  %15 = getelementptr inbounds nuw %struct.field_info, ptr %14, i32 0, i32 6
  %16 = load i32, ptr %15, align 4
  %17 = or i32 %16, 1
  %18 = load ptr, ptr %2, align 8
  %19 = getelementptr inbounds nuw %struct._proto_node, ptr %18, i32 0, i32 5
  %20 = load ptr, ptr %19, align 8
  %21 = getelementptr inbounds nuw %struct.field_info, ptr %20, i32 0, i32 6
  store i32 %17, ptr %21, align 4
  br label %22

22:                                               ; preds = %11, %6
  br label %23

23:                                               ; preds = %22
  br label %24

24:                                               ; preds = %23, %1
  ret void
}

; Function Attrs: null_pointer_is_valid sspstrong uwtable
define hidden i32 @dissect_nfs3_post_op_attr(ptr noundef %0, i32 noundef %1, ptr noundef %2, ptr noundef %3, ptr noundef %4) #0 {
  %6 = alloca ptr, align 8
  %7 = alloca i32, align 4
  %8 = alloca ptr, align 8
  %9 = alloca ptr, align 8
  %10 = alloca ptr, align 8
  %11 = alloca ptr, align 8
  %12 = alloca ptr, align 8
  %13 = alloca i32, align 4
  %14 = alloca i32, align 4
  store ptr %0, ptr %6, align 8
  store i32 %1, ptr %7, align 4
  store ptr %2, ptr %8, align 8
  store ptr %3, ptr %9, align 8
  store ptr %4, ptr %10, align 8
  call void @llvm.lifetime.start.p0(i64 8, ptr %11) #16
  call void @llvm.lifetime.start.p0(i64 8, ptr %12) #16
  call void @llvm.lifetime.start.p0(i64 4, ptr %13) #16
  %15 = load i32, ptr %7, align 4
  store i32 %15, ptr %13, align 4
  call void @llvm.lifetime.start.p0(i64 4, ptr %14) #16
  store i32 0, ptr %14, align 4
  %16 = load ptr, ptr %6, align 8
  %17 = load i32, ptr %7, align 4
  %18 = add i32 %17, 0
  %19 = call i32 @tvb_get_ntohl(ptr noundef %16, i32 noundef %18)
  store i32 %19, ptr %14, align 4
  %20 = load ptr, ptr %9, align 8
  %21 = load ptr, ptr %6, align 8
  %22 = load i32, ptr %7, align 4
  %23 = load i32, ptr @ett_nfs3_post_op_attr, align 4
  %24 = load ptr, ptr %10, align 8
  %25 = call ptr @proto_tree_add_subtree(ptr noundef %20, ptr noundef %21, i32 noundef %22, i32 noundef -1, i32 noundef %23, ptr noundef %11, ptr noundef %24)
  store ptr %25, ptr %12, align 8
  %26 = load ptr, ptr %12, align 8
  %27 = load i32, ptr @hf_nfs3_attributes_follow, align 4
  %28 = load ptr, ptr %6, align 8
  %29 = load i32, ptr %7, align 4
  %30 = load i32, ptr %14, align 4
  %31 = call ptr @proto_tree_add_uint(ptr noundef %26, i32 noundef %27, ptr noundef %28, i32 noundef %29, i32 noundef 4, i32 noundef %30)
  %32 = load i32, ptr %7, align 4
  %33 = add i32 %32, 4
  store i32 %33, ptr %7, align 4
  %34 = load i32, ptr %14, align 4
  switch i32 %34, label %41 [
    i32 1, label %35
    i32 0, label %41
  ]

35:                                               ; preds = %5
  %36 = load ptr, ptr %8, align 8
  %37 = load ptr, ptr %6, align 8
  %38 = load i32, ptr %7, align 4
  %39 = load ptr, ptr %12, align 8
  %40 = call i32 @dissect_nfs_fattr3(ptr noundef %36, ptr noundef %37, i32 noundef %38, ptr noundef %39, ptr noundef @.str, i32 noundef 2)
  store i32 %40, ptr %7, align 4
  br label %41

41:                                               ; preds = %5, %5, %35
  %42 = load ptr, ptr %11, align 8
  %43 = load i32, ptr %7, align 4
  %44 = load i32, ptr %13, align 4
  %45 = sub i32 %43, %44
  call void @proto_item_set_len(ptr noundef %42, i32 noundef %45)
  %46 = load i32, ptr %7, align 4
  call void @llvm.lifetime.end.p0(i64 4, ptr %14) #16
  call void @llvm.lifetime.end.p0(i64 4, ptr %13) #16
  call void @llvm.lifetime.end.p0(i64 8, ptr %12) #16
  call void @llvm.lifetime.end.p0(i64 8, ptr %11) #16
  ret i32 %46
}

; Function Attrs: null_pointer_is_valid sspstrong uwtable
define internal i32 @dissect_nfs3_status(ptr noundef %0, i32 noundef %1, ptr noundef %2, ptr noundef %3) #0 {
  %5 = alloca ptr, align 8
  %6 = alloca i32, align 4
  %7 = alloca ptr, align 8
  %8 = alloca ptr, align 8
  %9 = alloca i32, align 4
  %10 = alloca ptr, align 8
  store ptr %0, ptr %5, align 8
  store i32 %1, ptr %6, align 4
  store ptr %2, ptr %7, align 8
  store ptr %3, ptr %8, align 8
  call void @llvm.lifetime.start.p0(i64 4, ptr %9) #16
  %11 = load ptr, ptr %5, align 8
  %12 = load i32, ptr %6, align 4
  %13 = add i32 %12, 0
  %14 = call i32 @tvb_get_ntohl(ptr noundef %11, i32 noundef %13)
  store i32 %14, ptr %9, align 4
  %15 = load ptr, ptr %7, align 8
  %16 = icmp ne ptr %15, null
  br i1 %16, label %17, label %33

17:                                               ; preds = %4
  call void @llvm.lifetime.start.p0(i64 8, ptr %10) #16
  %18 = load ptr, ptr %7, align 8
  %19 = load i32, ptr @hf_nfs3_status, align 4
  %20 = load ptr, ptr %5, align 8
  %21 = load i32, ptr %6, align 4
  %22 = add i32 %21, 0
  %23 = load i32, ptr %9, align 4
  %24 = call ptr @proto_tree_add_uint(ptr noundef %18, i32 noundef %19, ptr noundef %20, i32 noundef %22, i32 noundef 4, i32 noundef %23)
  %25 = load ptr, ptr %7, align 8
  %26 = load i32, ptr @hf_nfs_status, align 4
  %27 = load ptr, ptr %5, align 8
  %28 = load i32, ptr %6, align 4
  %29 = add i32 %28, 0
  %30 = load i32, ptr %9, align 4
  %31 = call ptr @proto_tree_add_uint(ptr noundef %25, i32 noundef %26, ptr noundef %27, i32 noundef %29, i32 noundef 4, i32 noundef %30)
  store ptr %31, ptr %10, align 8
  %32 = load ptr, ptr %10, align 8
  call void @proto_item_set_hidden(ptr noundef %32)
  call void @llvm.lifetime.end.p0(i64 8, ptr %10) #16
  br label %33

33:                                               ; preds = %17, %4
  %34 = load i32, ptr %6, align 4
  %35 = add i32 %34, 4
  store i32 %35, ptr %6, align 4
  %36 = load i32, ptr %9, align 4
  %37 = load ptr, ptr %8, align 8
  store i32 %36, ptr %37, align 4
  %38 = load i32, ptr %6, align 4
  call void @llvm.lifetime.end.p0(i64 4, ptr %9) #16
  ret i32 %38
}

; Function Attrs: null_pointer_is_valid sspstrong uwtable
define internal i32 @dissect_nfs3_fsinfo_reply(ptr noundef %0, ptr noundef %1, ptr noundef %2, ptr noundef %3) #0 {
  %5 = alloca ptr, align 8
  %6 = alloca ptr, align 8
  %7 = alloca ptr, align 8
  %8 = alloca ptr, align 8
  %9 = alloca i32, align 4
  %10 = alloca i32, align 4
  %11 = alloca ptr, align 8
  store ptr %0, ptr %5, align 8
  store ptr %1, ptr %6, align 8
  store ptr %2, ptr %7, align 8
  store ptr %3, ptr %8, align 8
  call void @llvm.lifetime.start.p0(i64 4, ptr %9) #16
  call void @llvm.lifetime.start.p0(i64 4, ptr %10) #16
  store i32 0, ptr %10, align 4
  %12 = load ptr, ptr %5, align 8
  %13 = load i32, ptr %10, align 4
  %14 = load ptr, ptr %7, align 8
  %15 = call i32 @dissect_nfs3_status(ptr noundef %12, i32 noundef %13, ptr noundef %14, ptr noundef %9)
  store i32 %15, ptr %10, align 4
  %16 = load i32, ptr %9, align 4
  switch i32 %16, label %93 [
    i32 0, label %17
  ]

17:                                               ; preds = %4
  %18 = load ptr, ptr %5, align 8
  %19 = load i32, ptr %10, align 4
  %20 = load ptr, ptr %6, align 8
  %21 = load ptr, ptr %7, align 8
  %22 = call i32 @dissect_nfs3_post_op_attr(ptr noundef %18, i32 noundef %19, ptr noundef %20, ptr noundef %21, ptr noundef @.str.2294)
  store i32 %22, ptr %10, align 4
  %23 = load ptr, ptr %7, align 8
  %24 = load i32, ptr @hf_nfs3_fsinfo_rtmax, align 4
  %25 = load ptr, ptr %5, align 8
  %26 = load i32, ptr %10, align 4
  %27 = call ptr @proto_tree_add_item(ptr noundef %23, i32 noundef %24, ptr noundef %25, i32 noundef %26, i32 noundef 4, i32 noundef 0)
  %28 = load i32, ptr %10, align 4
  %29 = add i32 %28, 4
  store i32 %29, ptr %10, align 4
  %30 = load ptr, ptr %7, align 8
  %31 = load i32, ptr @hf_nfs3_fsinfo_rtpref, align 4
  %32 = load ptr, ptr %5, align 8
  %33 = load i32, ptr %10, align 4
  %34 = call ptr @proto_tree_add_item(ptr noundef %30, i32 noundef %31, ptr noundef %32, i32 noundef %33, i32 noundef 4, i32 noundef 0)
  %35 = load i32, ptr %10, align 4
  %36 = add i32 %35, 4
  store i32 %36, ptr %10, align 4
  %37 = load ptr, ptr %7, align 8
  %38 = load i32, ptr @hf_nfs3_fsinfo_rtmult, align 4
  %39 = load ptr, ptr %5, align 8
  %40 = load i32, ptr %10, align 4
  %41 = call ptr @proto_tree_add_item(ptr noundef %37, i32 noundef %38, ptr noundef %39, i32 noundef %40, i32 noundef 4, i32 noundef 0)
  %42 = load i32, ptr %10, align 4
  %43 = add i32 %42, 4
  store i32 %43, ptr %10, align 4
  %44 = load ptr, ptr %7, align 8
  %45 = load i32, ptr @hf_nfs3_fsinfo_wtmax, align 4
  %46 = load ptr, ptr %5, align 8
  %47 = load i32, ptr %10, align 4
  %48 = call ptr @proto_tree_add_item(ptr noundef %44, i32 noundef %45, ptr noundef %46, i32 noundef %47, i32 noundef 4, i32 noundef 0)
  %49 = load i32, ptr %10, align 4
  %50 = add i32 %49, 4
  store i32 %50, ptr %10, align 4
  %51 = load ptr, ptr %7, align 8
  %52 = load i32, ptr @hf_nfs3_fsinfo_wtpref, align 4
  %53 = load ptr, ptr %5, align 8
  %54 = load i32, ptr %10, align 4
  %55 = call ptr @proto_tree_add_item(ptr noundef %51, i32 noundef %52, ptr noundef %53, i32 noundef %54, i32 noundef 4, i32 noundef 0)
  %56 = load i32, ptr %10, align 4
  %57 = add i32 %56, 4
  store i32 %57, ptr %10, align 4
  %58 = load ptr, ptr %7, align 8
  %59 = load i32, ptr @hf_nfs3_fsinfo_wtmult, align 4
  %60 = load ptr, ptr %5, align 8
  %61 = load i32, ptr %10, align 4
  %62 = call ptr @proto_tree_add_item(ptr noundef %58, i32 noundef %59, ptr noundef %60, i32 noundef %61, i32 noundef 4, i32 noundef 0)
  %63 = load i32, ptr %10, align 4
  %64 = add i32 %63, 4
  store i32 %64, ptr %10, align 4
  %65 = load ptr, ptr %7, align 8
  %66 = load i32, ptr @hf_nfs3_fsinfo_dtpref, align 4
  %67 = load ptr, ptr %5, align 8
  %68 = load i32, ptr %10, align 4
  %69 = call ptr @proto_tree_add_item(ptr noundef %65, i32 noundef %66, ptr noundef %67, i32 noundef %68, i32 noundef 4, i32 noundef 0)
  %70 = load i32, ptr %10, align 4
  %71 = add i32 %70, 4
  store i32 %71, ptr %10, align 4
  %72 = load ptr, ptr %5, align 8
  %73 = load ptr, ptr %7, align 8
  %74 = load i32, ptr @hf_nfs3_fsinfo_maxfilesize, align 4
  %75 = load i32, ptr %10, align 4
  %76 = call i32 @dissect_rpc_uint64(ptr noundef %72, ptr noundef %73, i32 noundef %74, i32 noundef %75)
  store i32 %76, ptr %10, align 4
  %77 = load ptr, ptr %5, align 8
  %78 = load i32, ptr %10, align 4
  %79 = load ptr, ptr %7, align 8
  %80 = load i32, ptr @hf_nfs_dtime, align 4
  %81 = load i32, ptr @hf_nfs_dtime_sec, align 4
  %82 = load i32, ptr @hf_nfs_dtime_nsec, align 4
  %83 = call i32 @dissect_nfstime3(ptr noundef %77, i32 noundef %78, ptr noundef %79, i32 noundef %80, i32 noundef %81, i32 noundef %82)
  store i32 %83, ptr %10, align 4
  %84 = load ptr, ptr %7, align 8
  %85 = load ptr, ptr %5, align 8
  %86 = load i32, ptr %10, align 4
  %87 = load i32, ptr @hf_nfs3_fsinfo_properties, align 4
  %88 = load i32, ptr @ett_nfs3_fsinfo_properties, align 4
  %89 = call ptr @proto_tree_add_bitmask(ptr noundef %84, ptr noundef %85, i32 noundef %86, i32 noundef %87, i32 noundef %88, ptr noundef @dissect_nfs3_fsinfo_reply.properties, i32 noundef 0)
  %90 = load i32, ptr %10, align 4
  %91 = add i32 %90, 4
  store i32 %91, ptr %10, align 4
  %92 = load ptr, ptr %7, align 8
  call void (ptr, ptr, ...) @proto_item_append_text(ptr noundef %92, ptr noundef @.str.2358)
  br label %107

93:                                               ; preds = %4
  call void @llvm.lifetime.start.p0(i64 8, ptr %11) #16
  %94 = load ptr, ptr %5, align 8
  %95 = load i32, ptr %10, align 4
  %96 = load ptr, ptr %6, align 8
  %97 = load ptr, ptr %7, align 8
  %98 = call i32 @dissect_nfs3_post_op_attr(ptr noundef %94, i32 noundef %95, ptr noundef %96, ptr noundef %97, ptr noundef @.str.2294)
  store i32 %98, ptr %10, align 4
  %99 = load i32, ptr %9, align 4
  %100 = call ptr @val_to_str_ext(i32 noundef %99, ptr noundef @names_nfs3_status_ext, ptr noundef @.str.2241)
  store ptr %100, ptr %11, align 8
  %101 = load ptr, ptr %6, align 8
  %102 = getelementptr inbounds nuw %struct._packet_info, ptr %101, i32 0, i32 1
  %103 = load ptr, ptr %102, align 8
  %104 = load ptr, ptr %11, align 8
  call void (ptr, i32, ptr, ...) @col_append_fstr(ptr noundef %103, i32 noundef 25, ptr noundef @.str.2242, ptr noundef %104)
  %105 = load ptr, ptr %7, align 8
  %106 = load ptr, ptr %11, align 8
  call void (ptr, ptr, ...) @proto_item_append_text(ptr noundef %105, ptr noundef @.str.2359, ptr noundef %106)
  call void @llvm.lifetime.end.p0(i64 8, ptr %11) #16
  br label %107

107:                                              ; preds = %93, %17
  %108 = load i32, ptr %10, align 4
  call void @llvm.lifetime.end.p0(i64 4, ptr %10) #16
  call void @llvm.lifetime.end.p0(i64 4, ptr %9) #16
  ret i32 %108
}