; Function Attrs: null_pointer_is_valid sspstrong uwtable
define internal noundef i32 @dissect_nfs3_fsinfo_reply(ptr noundef %0, ptr noundef readonly captures(none) %1, ptr noundef %2, ptr readnone captures(none) %3) #0 {
  %5 = alloca ptr, align 8
  %6 = alloca ptr, align 8
  %7 = tail call i32 @tvb_get_ntohl(ptr noundef %0, i32 noundef 0)
  %.not.i = icmp eq ptr %2, null
  br i1 %.not.i, label %dissect_nfs3_status.exit, label %8

8:                                                ; preds = %4
  %9 = load i32, ptr @hf_nfs3_status, align 4
  %10 = tail call ptr @proto_tree_add_uint(ptr noundef nonnull %2, i32 noundef %9, ptr noundef %0, i32 noundef 0, i32 noundef 4, i32 noundef %7)
  %11 = load i32, ptr @hf_nfs_status, align 4
  %12 = tail call ptr @proto_tree_add_uint(ptr noundef nonnull %2, i32 noundef %11, ptr noundef %0, i32 noundef 0, i32 noundef 4, i32 noundef %7)
  %.not.i.i = icmp eq ptr %12, null
  br i1 %.not.i.i, label %dissect_nfs3_status.exit, label %13

13:                                               ; preds = %8
  %14 = getelementptr inbounds nuw i8, ptr %12, i64 40
  %15 = load ptr, ptr %14, align 8
  %.not5.i.i = icmp eq ptr %15, null
  br i1 %.not5.i.i, label %dissect_nfs3_status.exit, label %16

16:                                               ; preds = %13
  %17 = getelementptr inbounds nuw i8, ptr %15, i64 28
  %18 = load i32, ptr %17, align 4
  %19 = or i32 %18, 1
  store i32 %19, ptr %17, align 4
  br label %dissect_nfs3_status.exit

dissect_nfs3_status.exit:                         ; preds = %4, %8, %13, %16
  %cond = icmp eq i32 %7, 0
  br i1 %cond, label %20, label %61

20:                                               ; preds = %dissect_nfs3_status.exit
  call void @llvm.lifetime.start.p0(i64 8, ptr nonnull %6) #22
  %21 = tail call i32 @tvb_get_ntohl(ptr noundef %0, i32 noundef 4)
  %22 = load i32, ptr @ett_nfs3_post_op_attr, align 4
  %23 = call ptr @proto_tree_add_subtree(ptr noundef %2, ptr noundef %0, i32 noundef 4, i32 noundef -1, i32 noundef %22, ptr noundef nonnull %6, ptr noundef nonnull @.str.2294)
  %24 = load i32, ptr @hf_nfs3_attributes_follow, align 4
  %25 = call ptr @proto_tree_add_uint(ptr noundef %23, i32 noundef %24, ptr noundef %0, i32 noundef 4, i32 noundef 4, i32 noundef %21)
  %cond.i = icmp eq i32 %21, 1
  br i1 %cond.i, label %26, label %dissect_nfs3_post_op_attr.exit

26:                                               ; preds = %20
  %27 = call fastcc i32 @dissect_nfs_fattr3(ptr noundef readonly %1, ptr noundef %0, i32 noundef 8, ptr noundef %23, ptr noundef nonnull @.str, i32 noundef 2)
  br label %dissect_nfs3_post_op_attr.exit

dissect_nfs3_post_op_attr.exit:                   ; preds = %20, %26
  %.0.i = phi i32 [ %27, %26 ], [ 8, %20 ]
  %28 = load ptr, ptr %6, align 8
  %29 = add i32 %.0.i, -4
  call void @proto_item_set_len(ptr noundef %28, i32 noundef %29)
  call void @llvm.lifetime.end.p0(i64 8, ptr nonnull %6) #22
  %30 = load i32, ptr @hf_nfs3_fsinfo_rtmax, align 4
  %31 = call ptr @proto_tree_add_item(ptr noundef %2, i32 noundef %30, ptr noundef %0, i32 noundef %.0.i, i32 noundef 4, i32 noundef 0)
  %32 = add i32 %.0.i, 4
  %33 = load i32, ptr @hf_nfs3_fsinfo_rtpref, align 4
  %34 = call ptr @proto_tree_add_item(ptr noundef %2, i32 noundef %33, ptr noundef %0, i32 noundef %32, i32 noundef 4, i32 noundef 0)
  %35 = add i32 %.0.i, 8
  %36 = load i32, ptr @hf_nfs3_fsinfo_rtmult, align 4
  %37 = call ptr @proto_tree_add_item(ptr noundef %2, i32 noundef %36, ptr noundef %0, i32 noundef %35, i32 noundef 4, i32 noundef 0)
  %38 = add i32 %.0.i, 12
  %39 = load i32, ptr @hf_nfs3_fsinfo_wtmax, align 4
  %40 = call ptr @proto_tree_add_item(ptr noundef %2, i32 noundef %39, ptr noundef %0, i32 noundef %38, i32 noundef 4, i32 noundef 0)
  %41 = add i32 %.0.i, 16
  %42 = load i32, ptr @hf_nfs3_fsinfo_wtpref, align 4
  %43 = call ptr @proto_tree_add_item(ptr noundef %2, i32 noundef %42, ptr noundef %0, i32 noundef %41, i32 noundef 4, i32 noundef 0)
  %44 = add i32 %.0.i, 20
  %45 = load i32, ptr @hf_nfs3_fsinfo_wtmult, align 4
  %46 = call ptr @proto_tree_add_item(ptr noundef %2, i32 noundef %45, ptr noundef %0, i32 noundef %44, i32 noundef 4, i32 noundef 0)
  %47 = add i32 %.0.i, 24
  %48 = load i32, ptr @hf_nfs3_fsinfo_dtpref, align 4
  %49 = call ptr @proto_tree_add_item(ptr noundef %2, i32 noundef %48, ptr noundef %0, i32 noundef %47, i32 noundef 4, i32 noundef 0)
  %50 = add i32 %.0.i, 28
  %51 = load i32, ptr @hf_nfs3_fsinfo_maxfilesize, align 4
  %52 = call i32 @dissect_rpc_uint64(ptr noundef %0, ptr noundef %2, i32 noundef %51, i32 noundef %50)
  %53 = load i32, ptr @hf_nfs_dtime, align 4
  %54 = load i32, ptr @hf_nfs_dtime_sec, align 4
  %55 = load i32, ptr @hf_nfs_dtime_nsec, align 4
  %56 = call fastcc i32 @dissect_nfstime3(ptr noundef %0, i32 noundef %52, ptr noundef %2, i32 noundef %53, i32 noundef %54, i32 noundef %55)
  %57 = load i32, ptr @hf_nfs3_fsinfo_properties, align 4
  %58 = load i32, ptr @ett_nfs3_fsinfo_properties, align 4
  %59 = call ptr @proto_tree_add_bitmask(ptr noundef %2, ptr noundef %0, i32 noundef %56, i32 noundef %57, i32 noundef %58, ptr noundef nonnull @dissect_nfs3_fsinfo_reply.properties, i32 noundef 0)
  %60 = add i32 %56, 4
  call void (ptr, ptr, ...) @proto_item_append_text(ptr noundef %2, ptr noundef nonnull @.str.2358)
  br label %74

61:                                               ; preds = %dissect_nfs3_status.exit
  call void @llvm.lifetime.start.p0(i64 8, ptr nonnull %5) #22
  %62 = tail call i32 @tvb_get_ntohl(ptr noundef %0, i32 noundef 4)
  %63 = load i32, ptr @ett_nfs3_post_op_attr, align 4
  %64 = call ptr @proto_tree_add_subtree(ptr noundef %2, ptr noundef %0, i32 noundef 4, i32 noundef -1, i32 noundef %63, ptr noundef nonnull %5, ptr noundef nonnull @.str.2294)
  %65 = load i32, ptr @hf_nfs3_attributes_follow, align 4
  %66 = call ptr @proto_tree_add_uint(ptr noundef %64, i32 noundef %65, ptr noundef %0, i32 noundef 4, i32 noundef 4, i32 noundef %62)
  %cond.i54 = icmp eq i32 %62, 1
  br i1 %cond.i54, label %67, label %dissect_nfs3_post_op_attr.exit56

67:                                               ; preds = %61
  %68 = call fastcc i32 @dissect_nfs_fattr3(ptr noundef readonly %1, ptr noundef %0, i32 noundef 8, ptr noundef %64, ptr noundef nonnull @.str, i32 noundef 2)
  br label %dissect_nfs3_post_op_attr.exit56

dissect_nfs3_post_op_attr.exit56:                 ; preds = %61, %67
  %.0.i55 = phi i32 [ %68, %67 ], [ 8, %61 ]
  %69 = load ptr, ptr %5, align 8
  %70 = add i32 %.0.i55, -4
  call void @proto_item_set_len(ptr noundef %69, i32 noundef %70)
  call void @llvm.lifetime.end.p0(i64 8, ptr nonnull %5) #22
  %71 = call ptr @val_to_str_ext(i32 noundef %7, ptr noundef nonnull @names_nfs3_status_ext, ptr noundef nonnull @.str.2241)
  %72 = getelementptr inbounds nuw i8, ptr %1, i64 8
  %73 = load ptr, ptr %72, align 8
  call void (ptr, i32, ptr, ...) @col_append_fstr(ptr noundef %73, i32 noundef 25, ptr noundef nonnull @.str.2242, ptr noundef %71)
  call void (ptr, ptr, ...) @proto_item_append_text(ptr noundef %2, ptr noundef nonnull @.str.2359, ptr noundef %71)
  br label %74

74:                                               ; preds = %dissect_nfs3_post_op_attr.exit56, %dissect_nfs3_post_op_attr.exit
  %.0 = phi i32 [ %60, %dissect_nfs3_post_op_attr.exit ], [ %.0.i55, %dissect_nfs3_post_op_attr.exit56 ]
  ret i32 %.0
}